; Function Attrs: nounwind uwtable
define internal i32 @get_bundle_uri(ptr noundef %0) #0 {
  %2 = tail call fastcc ptr @get_helper(ptr noundef %0)
  %3 = getelementptr inbounds nuw i8, ptr %0, i64 24
  %4 = load ptr, ptr %3, align 8, !tbaa !24
  %.0.in.i = getelementptr inbounds nuw i8, ptr %4, i64 96
  %.0.i = load ptr, ptr %.0.in.i, align 8, !tbaa !69
  %5 = tail call fastcc i32 @process_connect_service(ptr noundef %0, ptr noundef nonnull @.str.62, ptr noundef %.0.i)
  %.not10.i = icmp eq i32 %5, 0
  br i1 %.not10.i, label %process_connect.exit.thread, label %6

6:                                                ; preds = %1
  %7 = load ptr, ptr %3, align 8, !tbaa !24
  %8 = getelementptr inbounds nuw i8, ptr %7, i64 8
  %9 = load ptr, ptr %8, align 8, !tbaa !71
  tail call void @transport_take_over(ptr noundef nonnull %0, ptr noundef %9) #19
  %10 = getelementptr inbounds nuw i8, ptr %7, i64 16
  %11 = load ptr, ptr %10, align 8, !tbaa !72
  %12 = tail call i32 @fclose(ptr noundef %11)
  %13 = load ptr, ptr %7, align 8, !tbaa !4
  tail call void @free(ptr noundef %13) #19
  tail call void @free(ptr noundef %7) #19
  %14 = load ptr, ptr %0, align 8, !tbaa !34
  %15 = getelementptr inbounds nuw i8, ptr %14, i64 16
  %16 = load ptr, ptr %15, align 8, !tbaa !75
  %17 = tail call i32 %16(ptr noundef nonnull %0) #19
  br label %process_connect.exit.thread

process_connect.exit.thread:                      ; preds = %1, %6
  %.0 = phi i32 [ %17, %6 ], [ -1, %1 ]
  ret i32 %.0
}